target datalayout = "e-m:e-p270:32:32-p271:32:32-p272:64:64-i64:64-i128:128-f80:128-n8:16:32:64-S128"
target triple = "x86_64-pc-linux-gnu"

%"class.Ipopt::TNLPReducer" = type { %"class.Ipopt::TNLP.base", %"class.Ipopt::SmartPtr", i32, i32, i32, ptr, i32, ptr, i32, i32, i32, ptr, i32, ptr, i32, ptr, i32, ptr }
%"class.Ipopt::TNLP.base" = type { %"class.Ipopt::ReferencedObject.base" }
%"class.Ipopt::ReferencedObject.base" = type <{ ptr, i32 }>
%"class.Ipopt::SmartPtr" = type { ptr }

; Function Attrs: mustprogress nounwind uwtable
define linkonce_odr noundef ptr @_ZNK5Ipopt8SmartPtrINS_4TNLPEEptEv(ptr noundef nonnull align 8 dereferenceable(8) %0) #3 comdat align 2 {
  %2 = alloca ptr, align 8
  store ptr %0, ptr %2, align 8
  %3 = load ptr, ptr %2, align 8
  %4 = getelementptr inbounds %"class.Ipopt::SmartPtr", ptr %3, i32 0, i32 0
  %5 = load ptr, ptr %4, align 8
  ret ptr %5
}

; Function Attrs: mustprogress uwtable
define noundef zeroext i1 @_ZN5Ipopt11TNLPReducer18get_starting_pointEibPdbS1_S1_ibS1_(ptr noundef nonnull align 8 dereferenceable(136) %0, i32 noundef %1, i1 noundef zeroext %2, ptr noundef %3, i1 noundef zeroext %4, ptr noundef %5, ptr noundef %6, i32 noundef %7, i1 noundef zeroext %8, ptr noundef %9) unnamed_addr #0 align 2 {
  %11 = alloca ptr, align 8
  %12 = alloca i32, align 4
  %13 = alloca i8, align 1
  %14 = alloca ptr, align 8
  %15 = alloca i8, align 1
  %16 = alloca ptr, align 8
  %17 = alloca ptr, align 8
  %18 = alloca i32, align 4
  %19 = alloca i8, align 1
  %20 = alloca ptr, align 8
  %21 = alloca ptr, align 8
  %22 = alloca i8, align 1
  %23 = alloca i32, align 4
  %24 = alloca ptr, align 8
  store ptr %0, ptr %11, align 8
  store i32 %1, ptr %12, align 4
  %25 = zext i1 %2 to i8
  store i8 %25, ptr %13, align 1
  store ptr %3, ptr %14, align 8
  %26 = zext i1 %4 to i8
  store i8 %26, ptr %15, align 1
  store ptr %5, ptr %16, align 8
  store ptr %6, ptr %17, align 8
  store i32 %7, ptr %18, align 4
  %27 = zext i1 %8 to i8
  store i8 %27, ptr %19, align 1
  store ptr %9, ptr %20, align 8
  %28 = load ptr, ptr %11, align 8
  store ptr null, ptr %21, align 8
  %29 = load i8, ptr %19, align 1
  %30 = trunc i8 %29 to i1
  br i1 %30, label %31, label %40

31:                                               ; preds = %10
  %32 = getelementptr inbounds %"class.Ipopt::TNLPReducer", ptr %28, i32 0, i32 2
  %33 = load i32, ptr %32, align 8
  %34 = sext i32 %33 to i64
  %35 = call { i64, i1 } @llvm.umul.with.overflow.i64(i64 %34, i64 8)
  %36 = extractvalue { i64, i1 } %35, 1
  %37 = extractvalue { i64, i1 } %35, 0
  %38 = select i1 %36, i64 -1, i64 %37
  %39 = call noalias noundef nonnull ptr @_Znam(i64 noundef %38) #8
  store ptr %39, ptr %21, align 8
  br label %40

40:                                               ; preds = %31, %10
  %41 = getelementptr inbounds %"class.Ipopt::TNLPReducer", ptr %28, i32 0, i32 1
  %42 = call noundef ptr @_ZNK5Ipopt8SmartPtrINS_4TNLPEEptEv(ptr noundef nonnull align 8 dereferenceable(8) %41)
  %43 = load i32, ptr %12, align 4
  %44 = load i8, ptr %13, align 1
  %45 = trunc i8 %44 to i1
  %46 = load ptr, ptr %14, align 8
  %47 = load i8, ptr %15, align 1
  %48 = trunc i8 %47 to i1
  %49 = load ptr, ptr %16, align 8
  %50 = load ptr, ptr %17, align 8
  %51 = getelementptr inbounds %"class.Ipopt::TNLPReducer", ptr %28, i32 0, i32 2
  %52 = load i32, ptr %51, align 8
  %53 = load i8, ptr %19, align 1
  %54 = trunc i8 %53 to i1
  %55 = load ptr, ptr %21, align 8
  %56 = load ptr, ptr %42, align 8
  %57 = getelementptr inbounds ptr, ptr %56, i64 8
  %58 = load ptr, ptr %57, align 8
  %59 = call noundef zeroext i1 %58(ptr noundef nonnull align 8 dereferenceable(12) %42, i32 noundef %43, i1 noundef zeroext %45, ptr noundef %46, i1 noundef zeroext %48, ptr noundef %49, ptr noundef %50, i32 noundef %52, i1 noundef zeroext %54, ptr noundef %55)
  %60 = zext i1 %59 to i8
  store i8 %60, ptr %22, align 1
  %61 = load i8, ptr %22, align 1
  %62 = trunc i8 %61 to i1
  br i1 %62, label %63, label %97

63:                                               ; preds = %40
  %64 = load i8, ptr %19, align 1
  %65 = trunc i8 %64 to i1
  br i1 %65, label %66, label %97

66:                                               ; preds = %63
  store i32 0, ptr %23, align 4
  br label %67

67:                                               ; preds = %93, %66
  %68 = load i32, ptr %23, align 4
  %69 = getelementptr inbounds %"class.Ipopt::TNLPReducer", ptr %28, i32 0, i32 2
  %70 = load i32, ptr %69, align 8
  %71 = icmp slt i32 %68, %70
  br i1 %71, label %72, label %96

72:                                               ; preds = %67
  %73 = getelementptr inbounds %"class.Ipopt::TNLPReducer", ptr %28, i32 0, i32 7
  %74 = load ptr, ptr %73, align 8
  %75 = load i32, ptr %23, align 4
  %76 = sext i32 %75 to i64
  %77 = getelementptr inbounds i32, ptr %74, i64 %76
  store ptr %77, ptr %24, align 8
  %78 = load ptr, ptr %24, align 8
  %79 = load i32, ptr %78, align 4
  %80 = icmp sge i32 %79, 0
  br i1 %80, label %81, label %92

81:                                               ; preds = %72
  %82 = load ptr, ptr %21, align 8
  %83 = load i32, ptr %23, align 4
  %84 = sext i32 %83 to i64
  %85 = getelementptr inbounds double, ptr %82, i64 %84
  %86 = load double, ptr %85, align 8
  %87 = load ptr, ptr %20, align 8
  %88 = load ptr, ptr %24, align 8
  %89 = load i32, ptr %88, align 4
  %90 = sext i32 %89 to i64
  %91 = getelementptr inbounds double, ptr %87, i64 %90
  store double %86, ptr %91, align 8
  br label %92

92:                                               ; preds = %81, %72
  br label %93

93:                                               ; preds = %92
  %94 = load i32, ptr %23, align 4
  %95 = add nsw i32 %94, 1
  store i32 %95, ptr %23, align 4
  br label %67, !llvm.loop !19

96:                                               ; preds = %67
  br label %97

97:                                               ; preds = %96, %63, %40
  %98 = load ptr, ptr %21, align 8
  %99 = icmp eq ptr %98, null
  br i1 %99, label %101, label %100

100:                                              ; preds = %97
  call void @_ZdaPv(ptr noundef %98) #11
  br label %101

101:                                              ; preds = %100, %97
  %102 = load i8, ptr %22, align 1
  %103 = trunc i8 %102 to i1
  ret i1 %103
}