; Function Attrs: mustprogress uwtable
define noundef zeroext i1 @_ZN5Ipopt11TNLPReducer18get_starting_pointEibPdbS1_S1_ibS1_(ptr nocapture noundef nonnull readonly align 8 dereferenceable(136) %0, i32 noundef %1, i1 noundef zeroext %2, ptr noundef %3, i1 noundef zeroext %4, ptr noundef %5, ptr noundef %6, i32 %7, i1 noundef zeroext %8, ptr nocapture noundef writeonly %9) unnamed_addr #0 align 2 {
  %11 = getelementptr inbounds i8, ptr %0, i64 24
  %12 = load i32, ptr %11, align 8
  br i1 %8, label %13, label %._crit_edge

13:                                               ; preds = %10
  %14 = sext i32 %12 to i64
  %15 = icmp slt i32 %12, 0
  %16 = shl nsw i64 %14, 3
  %17 = select i1 %15, i64 -1, i64 %16
  %18 = tail call noalias noundef nonnull ptr @_Znam(i64 noundef %17) #8
  br label %._crit_edge

._crit_edge:                                      ; preds = %10, %13
  %.0 = phi ptr [ %18, %13 ], [ null, %10 ]
  %19 = getelementptr inbounds i8, ptr %0, i64 16
  %20 = load ptr, ptr %19, align 8
  %21 = getelementptr inbounds i8, ptr %0, i64 24
  %22 = load ptr, ptr %20, align 8
  %23 = getelementptr inbounds i8, ptr %22, i64 64
  %24 = load ptr, ptr %23, align 8
  %25 = tail call noundef zeroext i1 %24(ptr noundef nonnull align 8 dereferenceable(12) %20, i32 noundef %1, i1 noundef zeroext %2, ptr noundef %3, i1 noundef zeroext %4, ptr noundef %5, ptr noundef %6, i32 noundef %12, i1 noundef zeroext %8, ptr noundef %.0)
  %brmerge.demorgan = and i1 %25, %8
  %26 = load i32, ptr %21, align 8
  %27 = icmp sgt i32 %26, 0
  %or.cond = select i1 %brmerge.demorgan, i1 %27, i1 false
  br i1 %or.cond, label %.lr.ph, label %.loopexit

.lr.ph:                                           ; preds = %._crit_edge
  %28 = getelementptr inbounds i8, ptr %0, i64 56
  br label %29

29:                                               ; preds = %.lr.ph, %40
  %30 = phi i32 [ %26, %.lr.ph ], [ %41, %40 ]
  %indvars.iv = phi i64 [ 0, %.lr.ph ], [ %indvars.iv.next, %40 ]
  %31 = load ptr, ptr %28, align 8
  %32 = getelementptr inbounds i32, ptr %31, i64 %indvars.iv
  %33 = load i32, ptr %32, align 4
  %34 = icmp sgt i32 %33, -1
  br i1 %34, label %35, label %40

35:                                               ; preds = %29
  %36 = getelementptr inbounds double, ptr %.0, i64 %indvars.iv
  %37 = load double, ptr %36, align 8
  %38 = zext nneg i32 %33 to i64
  %39 = getelementptr inbounds double, ptr %9, i64 %38
  store double %37, ptr %39, align 8
  %.pre27 = load i32, ptr %21, align 8
  br label %40

40:                                               ; preds = %29, %35
  %41 = phi i32 [ %30, %29 ], [ %.pre27, %35 ]
  %indvars.iv.next = add nuw nsw i64 %indvars.iv, 1
  %42 = sext i32 %41 to i64
  %43 = icmp slt i64 %indvars.iv.next, %42
  br i1 %43, label %29, label %.loopexit, !llvm.loop !19

.loopexit:                                        ; preds = %40, %._crit_edge
  %44 = icmp eq ptr %.0, null
  br i1 %44, label %46, label %45

45:                                               ; preds = %.loopexit
  tail call void @_ZdaPv(ptr noundef nonnull %.0) #9
  br label %46

46:                                               ; preds = %45, %.loopexit
  ret i1 %25
}